(lp0
(lp1
I0
aI0
aI0
aa(lp2
I0
aI1
aI0
aa(lp3
I0
aI2
aI0
aa(lp4
I0
aI2
aI1
aa(lp5
I0
aI2
aI2
aa(lp6
I0
aI2
aI3
aa(lp7
I0
aI2
aI4
aa(lp8
I0
aI2
aI5
aa(lp9
I0
aI2
aI6
aa(lp10
I0
aI2
aI7
aa(lp11
I0
aI2
aI8
aa(lp12
I0
aI2
aI9
aa(lp13
I0
aI2
aI10
aa(lp14
I0
aI2
aI11
aa(lp15
I0
aI2
aI12
aa(lp16
I0
aI2
aI13
aa(lp17
I0
aI2
aI14
aa(lp18
I0
aI2
aI15
aa(lp19
I0
aI3
aI0
aa(lp20
I0
aI3
aI1
aa(lp21
I0
aI3
aI2
aa(lp22
I0
aI3
aI3
aa(lp23
I0
aI4
aI0
aa(lp24
I0
aI4
aI1
aa(lp25
I0
aI4
aI2
aa(lp26
I0
aI4
aI3
aa(lp27
I0
aI4
aI4
aa(lp28
I0
aI4
aI5
aa(lp29
I0
aI4
aI6
aa(lp30
I0
aI4
aI7
aa(lp31
I0
aI5
aI0
aa(lp32
I0
aI5
aI1
aa(lp33
I1
aI0
aI0
aa(lp34
I1
aI1
aI0
aa(lp35
I1
aI2
aI0
aa(lp36
I1
aI2
aI1
aa(lp37
I1
aI2
aI2
aa(lp38
I1
aI2
aI3
aa(lp39
I1
aI2
aI4
aa(lp40
I1
aI2
aI5
aa(lp41
I1
aI2
aI6
aa(lp42
I1
aI2
aI7
aa(lp43
I1
aI2
aI8
aa(lp44
I1
aI2
aI9
aa(lp45
I1
aI2
aI10
aa(lp46
I1
aI2
aI11
aa(lp47
I1
aI2
aI12
aa(lp48
I1
aI2
aI13
aa(lp49
I1
aI2
aI14
aa(lp50
I1
aI2
aI15
aa(lp51
I1
aI3
aI0
aa(lp52
I2
aI0
aI0
aa(lp53
I2
aI0
aI1
aa(lp54
I2
aI1
aI0
aa(lp55
I2
aI1
aI1
aa(lp56
I2
aI1
aI2
aa(lp57
I2
aI1
aI3
aa(lp58
I2
aI1
aI4
aa(lp59
I2
aI1
aI5
aa(lp60
I2
aI1
aI6
aa(lp61
I2
aI1
aI7
aa(lp62
I2
aI2
aI0
aa(lp63
I2
aI2
aI1
aa(lp64
I2
aI2
aI2
aa(lp65
I2
aI2
aI3
aa(lp66
I2
aI3
aI0
aa(lp67
I2
aI4
aI0
aa(lp68
I2
aI4
aI1
aa(lp69
I2
aI4
aI2
aa(lp70
I2
aI4
aI3
aa(lp71
I2
aI4
aI4
aa(lp72
I2
aI4
aI5
aa(lp73
I2
aI4
aI6
aa(lp74
I2
aI4
aI7
aa(lp75
I2
aI5
aI0
aa(lp76
I2
aI5
aI1
aa(lp77
I3
aI0
aI0
aa(lp78
I3
aI0
aI1
aa(lp79
I3
aI1
aI0
aa(lp80
I3
aI1
aI1
aa(lp81
I4
aI0
aI0
aa(lp82
I4
aI1
aI0
aa(lp83
I4
aI2
aI0
aa(lp84
I5
aI0
aI0
aa(lp85
I6
aI0
aI0
aa(lp86
I6
aI1
aI0
aa(lp87
I6
aI2
aI0
aa(lp88
I6
aI3
aI0
aa(lp89
I7
aI0
aI0
aa(lp90
I8
aI0
aI0
aa(lp91
I8
aI1
aI0
aa(lp92
I8
aI2
aI0
aa(lp93
I8
aI3
aI0
aa(lp94
I8
aI4
aI0
aa(lp95
I8
aI5
aI0
aa(lp96
I9
aI0
aI0
aa(lp97
I9
aI1
aI0
aa(lp98
I9
aI2
aI0
aa(lp99
I9
aI3
aI0
aa(lp100
I10
aI0
aI0
aa(lp101
I11
aI0
aI0
aa(lp102
I11
aI1
aI0
aa(lp103
I12
aI0
aI0
aa(lp104
I12
aI1
aI0
aa(lp105
I12
aI1
aI1
aa(lp106
I12
aI2
aI0
aa(lp107
I13
aI0
aI0
aa(lp108
I13
aI1
aI0
aa(lp109
I13
aI2
aI0
aa(lp110
I13
aI3
aI0
aa(lp111
I13
aI4
aI0
aa(lp112
I13
aI5
aI0
aa(lp113
I14
aI0
aI0
aa(lp114
I14
aI1
aI0
aa(lp115
I14
aI2
aI0
aa.